target datalayout = "e-m:e-p270:32:32-p271:32:32-p272:64:64-i64:64-i128:128-f80:128-n8:16:32:64-S128"
target triple = "x86_64-pc-linux-gnu"

%"struct.Gluco::Lit" = type { i32 }
%"struct.Gluco::Solver::WatcherDeleted" = type { ptr }
%"struct.Gluco::Solver::VarOrderLt" = type { ptr }
%"class.Gluco::Solver" = type { ptr, i32, ptr, ptr, i32, i8, ptr, i64, %"class.Gluco::vec", %"class.Gluco::vec.0", i32, %"class.Gluco::vec.1", %"class.Gluco::vec.0", i32, i32, i32, double, double, double, double, i32, i32, i32, i32, i32, i32, double, double, double, double, i32, i32, i8, i8, double, ptr, i8, i64, i64, i64, i64, i64, i64, i64, i64, i64, i64, i64, i64, i64, i64, i64, i64, i64, i64, i64, i64, i64, i64, i32, i8, double, %"class.Gluco::vec.2", double, %"class.Gluco::OccLists", %"class.Gluco::OccLists", %"class.Gluco::vec.5", %"class.Gluco::vec.5", %"class.Gluco::vec.1", %"class.Gluco::vec.4", %"class.Gluco::vec.4", %"class.Gluco::vec.0", %"class.Gluco::vec", %"class.Gluco::vec", %"class.Gluco::vec.6", i32, i32, i64, %"class.Gluco::vec.0", %"class.Gluco::Heap", double, i8, %"class.Gluco::vec.5", %"class.Gluco::vec.0", %"class.Gluco::ClauseAllocator", i32, %"class.Gluco::bqueue", %"class.Gluco::bqueue", float, i32, %"class.Gluco::vec.4", %"class.Gluco::vec.0", %"class.Gluco::vec.0", %"class.Gluco::vec.0", i32, double, double, i32, i64, i64, i8, i32, i32, double, double, i32, i32, %"class.Gluco::vec", %"class.Gluco::vec" }
%"class.Gluco::vec.2" = type { ptr, i32, i32 }
%"class.Gluco::OccLists" = type { %"class.Gluco::vec.3", %"class.Gluco::vec.4", %"class.Gluco::vec.0", %"struct.Gluco::Solver::WatcherDeleted" }
%"class.Gluco::vec.3" = type { ptr, i32, i32 }
%"class.Gluco::vec.1" = type { ptr, i32, i32 }
%"class.Gluco::vec.6" = type { ptr, i32, i32 }
%"class.Gluco::Heap" = type { %"struct.Gluco::Solver::VarOrderLt", %"class.Gluco::vec", %"class.Gluco::vec" }
%"class.Gluco::vec.5" = type { ptr, i32, i32 }
%"class.Gluco::ClauseAllocator" = type { %"class.Gluco::RegionAllocator.base", i8, [3 x i8] }
%"class.Gluco::RegionAllocator.base" = type <{ ptr, i32, i32, i32 }>
%"class.Gluco::bqueue" = type { %"class.Gluco::vec.5", i32, i32, i64, i32, i32, i8, double, double }
%"class.Gluco::vec.4" = type { ptr, i32, i32 }
%"class.Gluco::vec.0" = type { ptr, i32, i32 }
%"class.Gluco::vec" = type { ptr, i32, i32 }
%"class.Gluco::lbool" = type { i8 }
%"struct.Gluco::Solver::VarData" = type { i32, i32 }

; Function Attrs: mustprogress nounwind uwtable
define linkonce_odr noundef i32 @_ZNK5Gluco3vecIiE4sizeEv(ptr noundef nonnull align 8 dereferenceable(16) %0) #2 comdat align 2 {
  %2 = alloca ptr, align 8
  store ptr %0, ptr %2, align 8
  %3 = load ptr, ptr %2, align 8
  %4 = getelementptr inbounds %"class.Gluco::vec", ptr %3, i32 0, i32 1
  %5 = load i32, ptr %4, align 8
  ret i32 %5
}

; Function Attrs: mustprogress nounwind uwtable
define linkonce_odr void @_ZN5Gluco3vecINS_3LitEE5push_ERKS1_(ptr noundef nonnull align 8 dereferenceable(16) %0, ptr noundef nonnull align 4 dereferenceable(4) %1) #2 comdat align 2 {
  %3 = alloca ptr, align 8
  %4 = alloca ptr, align 8
  store ptr %0, ptr %3, align 8
  store ptr %1, ptr %4, align 8
  %5 = load ptr, ptr %3, align 8
  %6 = load ptr, ptr %4, align 8
  %7 = getelementptr inbounds %"class.Gluco::vec.0", ptr %5, i32 0, i32 0
  %8 = load ptr, ptr %7, align 8
  %9 = getelementptr inbounds %"class.Gluco::vec.0", ptr %5, i32 0, i32 1
  %10 = load i32, ptr %9, align 8
  %11 = add nsw i32 %10, 1
  store i32 %11, ptr %9, align 8
  %12 = sext i32 %10 to i64
  %13 = getelementptr inbounds %"struct.Gluco::Lit", ptr %8, i64 %12
  call void @llvm.memcpy.p0.p0.i64(ptr align 4 %13, ptr align 4 %6, i64 4, i1 false)
  ret void
}

; Function Attrs: mustprogress nounwind uwtable
define linkonce_odr noundef nonnull align 4 dereferenceable(8) ptr @_ZN5Gluco3vecINS_6Solver7VarDataEEixEi(ptr noundef nonnull align 8 dereferenceable(16) %0, i32 noundef %1) #2 comdat align 2 {
  %3 = alloca ptr, align 8
  %4 = alloca i32, align 4
  store ptr %0, ptr %3, align 8
  store i32 %1, ptr %4, align 4
  %5 = load ptr, ptr %3, align 8
  %6 = getelementptr inbounds %"class.Gluco::vec.6", ptr %5, i32 0, i32 0
  %7 = load ptr, ptr %6, align 8
  %8 = load i32, ptr %4, align 4
  %9 = sext i32 %8 to i64
  %10 = getelementptr inbounds %"struct.Gluco::Solver::VarData", ptr %7, i64 %9
  ret ptr %10
}

; Function Attrs: mustprogress nounwind uwtable
define linkonce_odr i64 @_ZN5Gluco6Solver9mkVarDataEji(i32 noundef %0, i32 noundef %1) #2 comdat align 2 {
  %3 = alloca %"struct.Gluco::Solver::VarData", align 4
  %4 = alloca i32, align 4
  %5 = alloca i32, align 4
  store i32 %0, ptr %4, align 4
  store i32 %1, ptr %5, align 4
  %6 = getelementptr inbounds %"struct.Gluco::Solver::VarData", ptr %3, i32 0, i32 0
  %7 = load i32, ptr %4, align 4
  store i32 %7, ptr %6, align 4
  %8 = getelementptr inbounds %"struct.Gluco::Solver::VarData", ptr %3, i32 0, i32 1
  %9 = load i32, ptr %5, align 4
  store i32 %9, ptr %8, align 4
  %10 = load i64, ptr %3, align 4
  ret i64 %10
}

; Function Attrs: mustprogress uwtable
define linkonce_odr noundef i32 @_ZNK5Gluco6Solver13decisionLevelEv(ptr noundef nonnull align 8 dereferenceable(1216) %0) #1 comdat align 2 {
  %2 = alloca ptr, align 8
  store ptr %0, ptr %2, align 8
  %3 = load ptr, ptr %2, align 8
  %4 = getelementptr inbounds %"class.Gluco::Solver", ptr %3, i32 0, i32 73
  %5 = call noundef i32 @_ZNK5Gluco3vecIiE4sizeEv(ptr noundef nonnull align 8 dereferenceable(16) %4)
  ret i32 %5
}

; Function Attrs: mustprogress nounwind uwtable
define linkonce_odr noundef nonnull align 1 dereferenceable(1) ptr @_ZN5Gluco3vecINS_5lboolEEixEi(ptr noundef nonnull align 8 dereferenceable(16) %0, i32 noundef %1) #2 comdat align 2 {
  %3 = alloca ptr, align 8
  %4 = alloca i32, align 4
  store ptr %0, ptr %3, align 8
  store i32 %1, ptr %4, align 4
  %5 = load ptr, ptr %3, align 8
  %6 = getelementptr inbounds %"class.Gluco::vec.1", ptr %5, i32 0, i32 0
  %7 = load ptr, ptr %6, align 8
  %8 = load i32, ptr %4, align 4
  %9 = sext i32 %8 to i64
  %10 = getelementptr inbounds %"class.Gluco::lbool", ptr %7, i64 %9
  ret ptr %10
}

; Function Attrs: mustprogress nounwind uwtable
define linkonce_odr noundef i32 @_ZN5Gluco3varENS_3LitE(i32 %0) #2 comdat {
  %2 = alloca %"struct.Gluco::Lit", align 4
  %3 = getelementptr inbounds %"struct.Gluco::Lit", ptr %2, i32 0, i32 0
  store i32 %0, ptr %3, align 4
  %4 = getelementptr inbounds %"struct.Gluco::Lit", ptr %2, i32 0, i32 0
  %5 = load i32, ptr %4, align 4
  %6 = ashr i32 %5, 1
  ret i32 %6
}

; Function Attrs: mustprogress nounwind uwtable
define linkonce_odr void @_ZN5Gluco5lboolC2Eb(ptr noundef nonnull align 1 dereferenceable(1) %0, i1 noundef zeroext %1) unnamed_addr #2 comdat align 2 {
  %3 = alloca ptr, align 8
  %4 = alloca i8, align 1
  store ptr %0, ptr %3, align 8
  %5 = zext i1 %1 to i8
  store i8 %5, ptr %4, align 1
  %6 = load ptr, ptr %3, align 8
  %7 = getelementptr inbounds %"class.Gluco::lbool", ptr %6, i32 0, i32 0
  %8 = load i8, ptr %4, align 1
  %9 = trunc i8 %8 to i1
  %10 = xor i1 %9, true
  %11 = zext i1 %10 to i8
  store i8 %11, ptr %7, align 1
  ret void
}

; Function Attrs: mustprogress nounwind uwtable
define linkonce_odr noundef zeroext i1 @_ZN5Gluco4signENS_3LitE(i32 %0) #2 comdat {
  %2 = alloca %"struct.Gluco::Lit", align 4
  %3 = getelementptr inbounds %"struct.Gluco::Lit", ptr %2, i32 0, i32 0
  store i32 %0, ptr %3, align 4
  %4 = getelementptr inbounds %"struct.Gluco::Lit", ptr %2, i32 0, i32 0
  %5 = load i32, ptr %4, align 4
  %6 = and i32 %5, 1
  %7 = icmp ne i32 %6, 0
  ret i1 %7
}

; Function Attrs: mustprogress uwtable
define void @_ZN5Gluco6Solver16uncheckedEnqueueENS_3LitEj(ptr noundef nonnull align 8 dereferenceable(1216) %0, i32 %1, i32 noundef %2) #1 align 2 {
  %4 = alloca %"struct.Gluco::Lit", align 4
  %5 = alloca ptr, align 8
  %6 = alloca i32, align 4
  %7 = alloca %"class.Gluco::lbool", align 1
  %8 = alloca %"struct.Gluco::Lit", align 4
  %9 = alloca %"struct.Gluco::Lit", align 4
  %10 = alloca %"struct.Gluco::Solver::VarData", align 4
  %11 = alloca %"struct.Gluco::Lit", align 4
  %12 = getelementptr inbounds %"struct.Gluco::Lit", ptr %4, i32 0, i32 0
  store i32 %1, ptr %12, align 4
  store ptr %0, ptr %5, align 8
  store i32 %2, ptr %6, align 4
  %13 = load ptr, ptr %5, align 8
  call void @llvm.memcpy.p0.p0.i64(ptr align 4 %8, ptr align 4 %4, i64 4, i1 false)
  %14 = getelementptr inbounds %"struct.Gluco::Lit", ptr %8, i32 0, i32 0
  %15 = load i32, ptr %14, align 4
  %16 = call noundef zeroext i1 @_ZN5Gluco4signENS_3LitE(i32 %15)
  %17 = xor i1 %16, true
  call void @_ZN5Gluco5lboolC2Eb(ptr noundef nonnull align 1 dereferenceable(1) %7, i1 noundef zeroext %17)
  %18 = getelementptr inbounds %"class.Gluco::Solver", ptr %13, i32 0, i32 68
  call void @llvm.memcpy.p0.p0.i64(ptr align 4 %9, ptr align 4 %4, i64 4, i1 false)
  %19 = getelementptr inbounds %"struct.Gluco::Lit", ptr %9, i32 0, i32 0
  %20 = load i32, ptr %19, align 4
  %21 = call noundef i32 @_ZN5Gluco3varENS_3LitE(i32 %20)
  %22 = call noundef nonnull align 1 dereferenceable(1) ptr @_ZN5Gluco3vecINS_5lboolEEixEi(ptr noundef nonnull align 8 dereferenceable(16) %18, i32 noundef %21)
  call void @llvm.memcpy.p0.p0.i64(ptr align 1 %22, ptr align 1 %7, i64 1, i1 false)
  %23 = load i32, ptr %6, align 4
  %24 = call noundef i32 @_ZNK5Gluco6Solver13decisionLevelEv(ptr noundef nonnull align 8 dereferenceable(1216) %13)
  %25 = call i64 @_ZN5Gluco6Solver9mkVarDataEji(i32 noundef %23, i32 noundef %24)
  store i64 %25, ptr %10, align 4
  %26 = getelementptr inbounds %"class.Gluco::Solver", ptr %13, i32 0, i32 74
  call void @llvm.memcpy.p0.p0.i64(ptr align 4 %11, ptr align 4 %4, i64 4, i1 false)
  %27 = getelementptr inbounds %"struct.Gluco::Lit", ptr %11, i32 0, i32 0
  %28 = load i32, ptr %27, align 4
  %29 = call noundef i32 @_ZN5Gluco3varENS_3LitE(i32 %28)
  %30 = call noundef nonnull align 4 dereferenceable(8) ptr @_ZN5Gluco3vecINS_6Solver7VarDataEEixEi(ptr noundef nonnull align 8 dereferenceable(16) %26, i32 noundef %29)
  call void @llvm.memcpy.p0.p0.i64(ptr align 4 %30, ptr align 4 %10, i64 8, i1 false)
  %31 = getelementptr inbounds %"class.Gluco::Solver", ptr %13, i32 0, i32 71
  call void @_ZN5Gluco3vecINS_3LitEE5push_ERKS1_(ptr noundef nonnull align 8 dereferenceable(16) %31, ptr noundef nonnull align 4 dereferenceable(4) %4)
  ret void
}