; Function Attrs: mustprogress nofree norecurse nosync nounwind willreturn memory(write, argmem: readwrite, inaccessiblemem: none) uwtable
define void @_ZN5Gluco6Solver16uncheckedEnqueueENS_3LitEj(ptr nocapture noundef nonnull align 8 dereferenceable(1216) %0, i32 %1, i32 noundef %2) local_unnamed_addr #7 align 2 {
  %4 = trunc i32 %1 to i8
  %5 = and i8 %4, 1
  %6 = getelementptr inbounds i8, ptr %0, i64 632
  %7 = ashr i32 %1, 1
  %8 = load ptr, ptr %6, align 8
  %9 = sext i32 %7 to i64
  %10 = getelementptr inbounds %"class.Gluco::lbool", ptr %8, i64 %9
  store i8 %5, ptr %10, align 1
  %11 = getelementptr inbounds i8, ptr %0, i64 720
  %12 = load i32, ptr %11, align 8
  %.sroa.2.0.insert.ext.i = zext i32 %12 to i64
  %.sroa.2.0.insert.shift.i = shl nuw i64 %.sroa.2.0.insert.ext.i, 32
  %.sroa.0.0.insert.ext.i = zext i32 %2 to i64
  %.sroa.0.0.insert.insert.i = or disjoint i64 %.sroa.2.0.insert.shift.i, %.sroa.0.0.insert.ext.i
  %13 = getelementptr inbounds i8, ptr %0, i64 728
  %14 = load ptr, ptr %13, align 8
  %15 = getelementptr inbounds %"struct.Gluco::Solver::VarData", ptr %14, i64 %9
  store i64 %.sroa.0.0.insert.insert.i, ptr %15, align 4
  %16 = getelementptr inbounds i8, ptr %0, i64 680
  %17 = load ptr, ptr %16, align 8
  %18 = getelementptr inbounds i8, ptr %0, i64 688
  %19 = load i32, ptr %18, align 8
  %20 = add nsw i32 %19, 1
  store i32 %20, ptr %18, align 8
  %21 = sext i32 %19 to i64
  %22 = getelementptr inbounds %"struct.Gluco::Lit", ptr %17, i64 %21
  store i32 %1, ptr %22, align 4
  ret void
}